target datalayout = "e-m:e-p270:32:32-p271:32:32-p272:64:64-i64:64-i128:128-f80:128-n8:16:32:64-S128"
target triple = "x86_64-pc-linux-gnu"

%struct.AVFilterContext = type { ptr, ptr, ptr, ptr, ptr, i32, ptr, ptr, i32, ptr, ptr, i32, i32, ptr, ptr, ptr, ptr, i32, ptr, i32, i32 }
%struct.LutContext = type { ptr, [4 x [65536 x i16]], [4 x ptr], [4 x ptr], i32, i32, [7 x double], i32, i32, i32, i32, i32 }
%struct.thread_data = type { ptr, ptr, i32, i32 }
%struct.AVChannelLayout = type { i32, i32, %union.anon.1, ptr }
%union.anon.1 = type { i64 }
%struct.AVRational = type { i32, i32 }
%struct.AVFrame = type { [8 x ptr], [8 x i32], ptr, i32, i32, i32, i32, i32, %struct.AVRational, i64, i64, %struct.AVRational, i32, ptr, i32, i32, [8 x ptr], ptr, i32, ptr, i32, i32, i32, i32, i32, i32, i32, i64, ptr, i32, ptr, ptr, i64, i64, i64, i64, ptr, %struct.AVChannelLayout, i64 }

; Function Attrs: nounwind uwtable
define internal i32 @lut_packed_16bits(ptr noundef %0, ptr noundef %1, i32 noundef %2, i32 noundef %3) #1 {
  %5 = alloca ptr, align 8
  %6 = alloca ptr, align 8
  %7 = alloca i32, align 4
  %8 = alloca i32, align 4
  %9 = alloca ptr, align 8
  %10 = alloca ptr, align 8
  %11 = alloca i32, align 4
  %12 = alloca i32, align 4
  %13 = alloca i32, align 4
  %14 = alloca i32, align 4
  %15 = alloca ptr, align 8
  %16 = alloca ptr, align 8
  %17 = alloca ptr, align 8
  %18 = alloca i32, align 4
  %19 = alloca i32, align 4
  %20 = alloca i32, align 4
  %21 = alloca ptr, align 8
  %22 = alloca ptr, align 8
  %23 = alloca ptr, align 8
  %24 = alloca ptr, align 8
  %25 = alloca i32, align 4
  %26 = alloca i32, align 4
  store ptr %0, ptr %5, align 8, !tbaa !4
  store ptr %1, ptr %6, align 8, !tbaa !34
  store i32 %2, ptr %7, align 4, !tbaa !24
  store i32 %3, ptr %8, align 4, !tbaa !24
  call void @llvm.lifetime.start.p0(i64 8, ptr %9) #8
  %27 = load ptr, ptr %5, align 8, !tbaa !4
  %28 = getelementptr inbounds nuw %struct.AVFilterContext, ptr %27, i32 0, i32 9
  %29 = load ptr, ptr %28, align 8, !tbaa !9
  store ptr %29, ptr %9, align 8, !tbaa !22
  call void @llvm.lifetime.start.p0(i64 8, ptr %10) #8
  %30 = load ptr, ptr %6, align 8, !tbaa !34
  store ptr %30, ptr %10, align 8, !tbaa !85
  call void @llvm.lifetime.start.p0(i64 4, ptr %11) #8
  call void @llvm.lifetime.start.p0(i64 4, ptr %12) #8
  call void @llvm.lifetime.start.p0(i64 4, ptr %13) #8
  %31 = load ptr, ptr %10, align 8, !tbaa !85
  %32 = getelementptr inbounds nuw %struct.thread_data, ptr %31, i32 0, i32 2
  %33 = load i32, ptr %32, align 8, !tbaa !57
  store i32 %33, ptr %13, align 4, !tbaa !24
  call void @llvm.lifetime.start.p0(i64 4, ptr %14) #8
  %34 = load ptr, ptr %10, align 8, !tbaa !85
  %35 = getelementptr inbounds nuw %struct.thread_data, ptr %34, i32 0, i32 3
  %36 = load i32, ptr %35, align 4, !tbaa !64
  store i32 %36, ptr %14, align 4, !tbaa !24
  call void @llvm.lifetime.start.p0(i64 8, ptr %15) #8
  %37 = load ptr, ptr %10, align 8, !tbaa !85
  %38 = getelementptr inbounds nuw %struct.thread_data, ptr %37, i32 0, i32 0
  %39 = load ptr, ptr %38, align 8, !tbaa !54
  store ptr %39, ptr %15, align 8, !tbaa !39
  call void @llvm.lifetime.start.p0(i64 8, ptr %16) #8
  %40 = load ptr, ptr %10, align 8, !tbaa !85
  %41 = getelementptr inbounds nuw %struct.thread_data, ptr %40, i32 0, i32 1
  %42 = load ptr, ptr %41, align 8, !tbaa !56
  store ptr %42, ptr %16, align 8, !tbaa !39
  call void @llvm.lifetime.start.p0(i64 8, ptr %17) #8
  %43 = load ptr, ptr %9, align 8, !tbaa !22
  %44 = getelementptr inbounds nuw %struct.LutContext, ptr %43, i32 0, i32 1
  %45 = getelementptr inbounds [4 x [65536 x i16]], ptr %44, i64 0, i64 0
  store ptr %45, ptr %17, align 8, !tbaa !87
  call void @llvm.lifetime.start.p0(i64 4, ptr %18) #8
  %46 = load ptr, ptr %9, align 8, !tbaa !22
  %47 = getelementptr inbounds nuw %struct.LutContext, ptr %46, i32 0, i32 11
  %48 = load i32, ptr %47, align 8, !tbaa !78
  store i32 %48, ptr %18, align 4, !tbaa !24
  call void @llvm.lifetime.start.p0(i64 4, ptr %19) #8
  %49 = load i32, ptr %14, align 4, !tbaa !24
  %50 = load i32, ptr %7, align 4, !tbaa !24
  %51 = mul nsw i32 %49, %50
  %52 = load i32, ptr %8, align 4, !tbaa !24
  %53 = sdiv i32 %51, %52
  store i32 %53, ptr %19, align 4, !tbaa !24
  call void @llvm.lifetime.start.p0(i64 4, ptr %20) #8
  %54 = load i32, ptr %14, align 4, !tbaa !24
  %55 = load i32, ptr %7, align 4, !tbaa !24
  %56 = add nsw i32 %55, 1
  %57 = mul nsw i32 %54, %56
  %58 = load i32, ptr %8, align 4, !tbaa !24
  %59 = sdiv i32 %57, %58
  store i32 %59, ptr %20, align 4, !tbaa !24
  call void @llvm.lifetime.start.p0(i64 8, ptr %21) #8
  call void @llvm.lifetime.start.p0(i64 8, ptr %22) #8
  call void @llvm.lifetime.start.p0(i64 8, ptr %23) #8
  call void @llvm.lifetime.start.p0(i64 8, ptr %24) #8
  call void @llvm.lifetime.start.p0(i64 4, ptr %25) #8
  %60 = load ptr, ptr %15, align 8, !tbaa !39
  %61 = getelementptr inbounds nuw %struct.AVFrame, ptr %60, i32 0, i32 1
  %62 = getelementptr inbounds [8 x i32], ptr %61, i64 0, i64 0
  %63 = load i32, ptr %62, align 8, !tbaa !24
  %64 = sdiv i32 %63, 2
  store i32 %64, ptr %25, align 4, !tbaa !24
  call void @llvm.lifetime.start.p0(i64 4, ptr %26) #8
  %65 = load ptr, ptr %16, align 8, !tbaa !39
  %66 = getelementptr inbounds nuw %struct.AVFrame, ptr %65, i32 0, i32 1
  %67 = getelementptr inbounds [8 x i32], ptr %66, i64 0, i64 0
  %68 = load i32, ptr %67, align 8, !tbaa !24
  %69 = sdiv i32 %68, 2
  store i32 %69, ptr %26, align 4, !tbaa !24
  %70 = load ptr, ptr %15, align 8, !tbaa !39
  %71 = getelementptr inbounds nuw %struct.AVFrame, ptr %70, i32 0, i32 0
  %72 = getelementptr inbounds [8 x ptr], ptr %71, i64 0, i64 0
  %73 = load ptr, ptr %72, align 8, !tbaa !35
  store ptr %73, ptr %23, align 8, !tbaa !87
  %74 = load ptr, ptr %16, align 8, !tbaa !39
  %75 = getelementptr inbounds nuw %struct.AVFrame, ptr %74, i32 0, i32 0
  %76 = getelementptr inbounds [8 x ptr], ptr %75, i64 0, i64 0
  %77 = load ptr, ptr %76, align 8, !tbaa !35
  store ptr %77, ptr %24, align 8, !tbaa !87
  %78 = load i32, ptr %19, align 4, !tbaa !24
  store i32 %78, ptr %11, align 4, !tbaa !24
  br label %79

79:                                               ; preds = %159, %4
  %80 = load i32, ptr %11, align 4, !tbaa !24
  %81 = load i32, ptr %20, align 4, !tbaa !24
  %82 = icmp slt i32 %80, %81
  br i1 %82, label %83, label %162

83:                                               ; preds = %79
  %84 = load ptr, ptr %23, align 8, !tbaa !87
  %85 = load i32, ptr %11, align 4, !tbaa !24
  %86 = load i32, ptr %25, align 4, !tbaa !24
  %87 = mul nsw i32 %85, %86
  %88 = sext i32 %87 to i64
  %89 = getelementptr inbounds i16, ptr %84, i64 %88
  store ptr %89, ptr %21, align 8, !tbaa !87
  %90 = load ptr, ptr %24, align 8, !tbaa !87
  %91 = load i32, ptr %11, align 4, !tbaa !24
  %92 = load i32, ptr %26, align 4, !tbaa !24
  %93 = mul nsw i32 %91, %92
  %94 = sext i32 %93 to i64
  %95 = getelementptr inbounds i16, ptr %90, i64 %94
  store ptr %95, ptr %22, align 8, !tbaa !87
  store i32 0, ptr %12, align 4, !tbaa !24
  br label %96

96:                                               ; preds = %155, %83
  %97 = load i32, ptr %12, align 4, !tbaa !24
  %98 = load i32, ptr %13, align 4, !tbaa !24
  %99 = icmp slt i32 %97, %98
  br i1 %99, label %100, label %158

100:                                              ; preds = %96
  %101 = load i32, ptr %18, align 4, !tbaa !24
  switch i32 %101, label %135 [
    i32 4, label %102
    i32 3, label %113
    i32 2, label %124
  ]

102:                                              ; preds = %100
  %103 = load ptr, ptr %17, align 8, !tbaa !87
  %104 = getelementptr inbounds [65536 x i16], ptr %103, i64 3
  %105 = load ptr, ptr %21, align 8, !tbaa !87
  %106 = getelementptr inbounds i16, ptr %105, i64 3
  %107 = load i16, ptr %106, align 2, !tbaa !81
  %108 = zext i16 %107 to i64
  %109 = getelementptr inbounds nuw [65536 x i16], ptr %104, i64 0, i64 %108
  %110 = load i16, ptr %109, align 2, !tbaa !81
  %111 = load ptr, ptr %22, align 8, !tbaa !87
  %112 = getelementptr inbounds i16, ptr %111, i64 3
  store i16 %110, ptr %112, align 2, !tbaa !81
  br label %113

113:                                              ; preds = %100, %102
  %114 = load ptr, ptr %17, align 8, !tbaa !87
  %115 = getelementptr inbounds [65536 x i16], ptr %114, i64 2
  %116 = load ptr, ptr %21, align 8, !tbaa !87
  %117 = getelementptr inbounds i16, ptr %116, i64 2
  %118 = load i16, ptr %117, align 2, !tbaa !81
  %119 = zext i16 %118 to i64
  %120 = getelementptr inbounds nuw [65536 x i16], ptr %115, i64 0, i64 %119
  %121 = load i16, ptr %120, align 2, !tbaa !81
  %122 = load ptr, ptr %22, align 8, !tbaa !87
  %123 = getelementptr inbounds i16, ptr %122, i64 2
  store i16 %121, ptr %123, align 2, !tbaa !81
  br label %124

124:                                              ; preds = %100, %113
  %125 = load ptr, ptr %17, align 8, !tbaa !87
  %126 = getelementptr inbounds [65536 x i16], ptr %125, i64 1
  %127 = load ptr, ptr %21, align 8, !tbaa !87
  %128 = getelementptr inbounds i16, ptr %127, i64 1
  %129 = load i16, ptr %128, align 2, !tbaa !81
  %130 = zext i16 %129 to i64
  %131 = getelementptr inbounds nuw [65536 x i16], ptr %126, i64 0, i64 %130
  %132 = load i16, ptr %131, align 2, !tbaa !81
  %133 = load ptr, ptr %22, align 8, !tbaa !87
  %134 = getelementptr inbounds i16, ptr %133, i64 1
  store i16 %132, ptr %134, align 2, !tbaa !81
  br label %135

135:                                              ; preds = %100, %124
  %136 = load ptr, ptr %17, align 8, !tbaa !87
  %137 = getelementptr inbounds [65536 x i16], ptr %136, i64 0
  %138 = load ptr, ptr %21, align 8, !tbaa !87
  %139 = getelementptr inbounds i16, ptr %138, i64 0
  %140 = load i16, ptr %139, align 2, !tbaa !81
  %141 = zext i16 %140 to i64
  %142 = getelementptr inbounds nuw [65536 x i16], ptr %137, i64 0, i64 %141
  %143 = load i16, ptr %142, align 2, !tbaa !81
  %144 = load ptr, ptr %22, align 8, !tbaa !87
  %145 = getelementptr inbounds i16, ptr %144, i64 0
  store i16 %143, ptr %145, align 2, !tbaa !81
  br label %146

146:                                              ; preds = %135
  %147 = load i32, ptr %18, align 4, !tbaa !24
  %148 = load ptr, ptr %22, align 8, !tbaa !87
  %149 = sext i32 %147 to i64
  %150 = getelementptr inbounds i16, ptr %148, i64 %149
  store ptr %150, ptr %22, align 8, !tbaa !87
  %151 = load i32, ptr %18, align 4, !tbaa !24
  %152 = load ptr, ptr %21, align 8, !tbaa !87
  %153 = sext i32 %151 to i64
  %154 = getelementptr inbounds i16, ptr %152, i64 %153
  store ptr %154, ptr %21, align 8, !tbaa !87
  br label %155

155:                                              ; preds = %146
  %156 = load i32, ptr %12, align 4, !tbaa !24
  %157 = add nsw i32 %156, 1
  store i32 %157, ptr %12, align 4, !tbaa !24
  br label %96, !llvm.loop !89

158:                                              ; preds = %96
  br label %159

159:                                              ; preds = %158
  %160 = load i32, ptr %11, align 4, !tbaa !24
  %161 = add nsw i32 %160, 1
  store i32 %161, ptr %11, align 4, !tbaa !24
  br label %79, !llvm.loop !90

162:                                              ; preds = %79
  call void @llvm.lifetime.end.p0(i64 4, ptr %26) #8
  call void @llvm.lifetime.end.p0(i64 4, ptr %25) #8
  call void @llvm.lifetime.end.p0(i64 8, ptr %24) #8
  call void @llvm.lifetime.end.p0(i64 8, ptr %23) #8
  call void @llvm.lifetime.end.p0(i64 8, ptr %22) #8
  call void @llvm.lifetime.end.p0(i64 8, ptr %21) #8
  call void @llvm.lifetime.end.p0(i64 4, ptr %20) #8
  call void @llvm.lifetime.end.p0(i64 4, ptr %19) #8
  call void @llvm.lifetime.end.p0(i64 4, ptr %18) #8
  call void @llvm.lifetime.end.p0(i64 8, ptr %17) #8
  call void @llvm.lifetime.end.p0(i64 8, ptr %16) #8
  call void @llvm.lifetime.end.p0(i64 8, ptr %15) #8
  call void @llvm.lifetime.end.p0(i64 4, ptr %14) #8
  call void @llvm.lifetime.end.p0(i64 4, ptr %13) #8
  call void @llvm.lifetime.end.p0(i64 4, ptr %12) #8
  call void @llvm.lifetime.end.p0(i64 4, ptr %11) #8
  call void @llvm.lifetime.end.p0(i64 8, ptr %10) #8
  call void @llvm.lifetime.end.p0(i64 8, ptr %9) #8
  ret i32 0
}