; Function Attrs: nofree norecurse nosync nounwind memory(readwrite, inaccessiblemem: none) uwtable
define internal noundef i32 @lut_packed_16bits(ptr noundef readonly captures(none) %0, ptr noundef readonly captures(none) %1, i32 noundef %2, i32 noundef %3) #5 {
  %5 = getelementptr inbounds nuw i8, ptr %0, i64 72
  %6 = load ptr, ptr %5, align 8, !tbaa !4
  %7 = getelementptr inbounds nuw i8, ptr %1, i64 16
  %8 = load i32, ptr %7, align 8, !tbaa !49
  %9 = getelementptr inbounds nuw i8, ptr %1, i64 20
  %10 = load i32, ptr %9, align 4, !tbaa !56
  %11 = load ptr, ptr %1, align 8, !tbaa !46
  %12 = getelementptr inbounds nuw i8, ptr %1, i64 8
  %13 = load ptr, ptr %12, align 8, !tbaa !48
  %14 = getelementptr inbounds nuw i8, ptr %6, i64 8
  %15 = getelementptr inbounds nuw i8, ptr %6, i64 524440
  %16 = load i32, ptr %15, align 8, !tbaa !69
  %17 = mul nsw i32 %10, %2
  %18 = sdiv i32 %17, %3
  %19 = add nsw i32 %2, 1
  %20 = mul nsw i32 %10, %19
  %21 = sdiv i32 %20, %3
  %22 = getelementptr inbounds nuw i8, ptr %11, i64 64
  %23 = load i32, ptr %22, align 8, !tbaa !67
  %24 = sdiv i32 %23, 2
  %25 = getelementptr inbounds nuw i8, ptr %13, i64 64
  %26 = load i32, ptr %25, align 8, !tbaa !67
  %27 = sdiv i32 %26, 2
  %28 = load ptr, ptr %11, align 8, !tbaa !72
  %29 = load ptr, ptr %13, align 8, !tbaa !72
  %30 = icmp slt i32 %18, %21
  br i1 %30, label %.lr.ph63, label %._crit_edge64

.lr.ph63:                                         ; preds = %4
  %31 = icmp sgt i32 %8, 0
  %32 = getelementptr inbounds nuw i8, ptr %6, i64 393224
  %33 = getelementptr inbounds nuw i8, ptr %6, i64 262152
  %34 = getelementptr inbounds nuw i8, ptr %6, i64 131080
  %35 = sext i32 %16 to i64
  br i1 %31, label %.lr.ph63.split.us, label %._crit_edge64

.lr.ph63.split.us:                                ; preds = %.lr.ph63
  %36 = sext i32 %18 to i64
  %37 = sext i32 %24 to i64
  %38 = sext i32 %27 to i64
  %wide.trip.count106 = sext i32 %21 to i64
  switch i32 %16, label %.lr.ph.us [
    i32 4, label %.lr.ph.us.us
    i32 3, label %.lr.ph.us.us73
    i32 2, label %.lr.ph.us.us79
  ]

.lr.ph.us.us:                                     ; preds = %.lr.ph63.split.us, %._crit_edge.split.us.us.us
  %indvars.iv97 = phi i64 [ %indvars.iv.next98, %._crit_edge.split.us.us.us ], [ %36, %.lr.ph63.split.us ]
  %39 = mul nsw i64 %indvars.iv97, %37
  %40 = getelementptr inbounds i16, ptr %28, i64 %39
  %41 = mul nsw i64 %indvars.iv97, %38
  %42 = getelementptr inbounds i16, ptr %29, i64 %41
  br label %43

43:                                               ; preds = %43, %.lr.ph.us.us
  %.04752.us.us.us = phi i32 [ 0, %.lr.ph.us.us ], [ %68, %43 ]
  %.04851.us.us.us = phi ptr [ %40, %.lr.ph.us.us ], [ %67, %43 ]
  %.04950.us.us.us = phi ptr [ %42, %.lr.ph.us.us ], [ %66, %43 ]
  %44 = getelementptr inbounds nuw i8, ptr %.04851.us.us.us, i64 6
  %45 = load i16, ptr %44, align 2, !tbaa !73
  %46 = zext i16 %45 to i64
  %47 = getelementptr inbounds nuw [65536 x i16], ptr %32, i64 0, i64 %46
  %48 = load i16, ptr %47, align 2, !tbaa !73
  %49 = getelementptr inbounds nuw i8, ptr %.04950.us.us.us, i64 6
  store i16 %48, ptr %49, align 2, !tbaa !73
  %50 = getelementptr inbounds nuw i8, ptr %.04851.us.us.us, i64 4
  %51 = load i16, ptr %50, align 2, !tbaa !73
  %52 = zext i16 %51 to i64
  %53 = getelementptr inbounds nuw [65536 x i16], ptr %33, i64 0, i64 %52
  %54 = load i16, ptr %53, align 2, !tbaa !73
  %55 = getelementptr inbounds nuw i8, ptr %.04950.us.us.us, i64 4
  store i16 %54, ptr %55, align 2, !tbaa !73
  %56 = getelementptr inbounds nuw i8, ptr %.04851.us.us.us, i64 2
  %57 = load i16, ptr %56, align 2, !tbaa !73
  %58 = zext i16 %57 to i64
  %59 = getelementptr inbounds nuw [65536 x i16], ptr %34, i64 0, i64 %58
  %60 = load i16, ptr %59, align 2, !tbaa !73
  %61 = getelementptr inbounds nuw i8, ptr %.04950.us.us.us, i64 2
  store i16 %60, ptr %61, align 2, !tbaa !73
  %62 = load i16, ptr %.04851.us.us.us, align 2, !tbaa !73
  %63 = zext i16 %62 to i64
  %64 = getelementptr inbounds nuw [65536 x i16], ptr %14, i64 0, i64 %63
  %65 = load i16, ptr %64, align 2, !tbaa !73
  store i16 %65, ptr %.04950.us.us.us, align 2, !tbaa !73
  %66 = getelementptr inbounds i16, ptr %.04950.us.us.us, i64 %35
  %67 = getelementptr inbounds i16, ptr %.04851.us.us.us, i64 %35
  %68 = add nuw nsw i32 %.04752.us.us.us, 1
  %exitcond96.not = icmp eq i32 %68, %8
  br i1 %exitcond96.not, label %._crit_edge.split.us.us.us, label %43, !llvm.loop !77

._crit_edge.split.us.us.us:                       ; preds = %43
  %indvars.iv.next98 = add nsw i64 %indvars.iv97, 1
  %exitcond101.not = icmp eq i64 %indvars.iv.next98, %wide.trip.count106
  br i1 %exitcond101.not, label %._crit_edge64, label %.lr.ph.us.us, !llvm.loop !78

.lr.ph.us.us73:                                   ; preds = %.lr.ph63.split.us, %._crit_edge.split.split.us.us.us
  %indvars.iv91 = phi i64 [ %indvars.iv.next92, %._crit_edge.split.split.us.us.us ], [ %36, %.lr.ph63.split.us ]
  %69 = mul nsw i64 %indvars.iv91, %37
  %70 = getelementptr inbounds i16, ptr %28, i64 %69
  %71 = mul nsw i64 %indvars.iv91, %38
  %72 = getelementptr inbounds i16, ptr %29, i64 %71
  br label %73

73:                                               ; preds = %73, %.lr.ph.us.us73
  %.04752.us54.us.us = phi i32 [ 0, %.lr.ph.us.us73 ], [ %92, %73 ]
  %.04851.us55.us.us = phi ptr [ %70, %.lr.ph.us.us73 ], [ %91, %73 ]
  %.04950.us56.us.us = phi ptr [ %72, %.lr.ph.us.us73 ], [ %90, %73 ]
  %74 = getelementptr inbounds nuw i8, ptr %.04851.us55.us.us, i64 4
  %75 = load i16, ptr %74, align 2, !tbaa !73
  %76 = zext i16 %75 to i64
  %77 = getelementptr inbounds nuw [65536 x i16], ptr %33, i64 0, i64 %76
  %78 = load i16, ptr %77, align 2, !tbaa !73
  %79 = getelementptr inbounds nuw i8, ptr %.04950.us56.us.us, i64 4
  store i16 %78, ptr %79, align 2, !tbaa !73
  %80 = getelementptr inbounds nuw i8, ptr %.04851.us55.us.us, i64 2
  %81 = load i16, ptr %80, align 2, !tbaa !73
  %82 = zext i16 %81 to i64
  %83 = getelementptr inbounds nuw [65536 x i16], ptr %34, i64 0, i64 %82
  %84 = load i16, ptr %83, align 2, !tbaa !73
  %85 = getelementptr inbounds nuw i8, ptr %.04950.us56.us.us, i64 2
  store i16 %84, ptr %85, align 2, !tbaa !73
  %86 = load i16, ptr %.04851.us55.us.us, align 2, !tbaa !73
  %87 = zext i16 %86 to i64
  %88 = getelementptr inbounds nuw [65536 x i16], ptr %14, i64 0, i64 %87
  %89 = load i16, ptr %88, align 2, !tbaa !73
  store i16 %89, ptr %.04950.us56.us.us, align 2, !tbaa !73
  %90 = getelementptr inbounds i16, ptr %.04950.us56.us.us, i64 %35
  %91 = getelementptr inbounds i16, ptr %.04851.us55.us.us, i64 %35
  %92 = add nuw nsw i32 %.04752.us54.us.us, 1
  %exitcond90.not = icmp eq i32 %92, %8
  br i1 %exitcond90.not, label %._crit_edge.split.split.us.us.us, label %73, !llvm.loop !77

._crit_edge.split.split.us.us.us:                 ; preds = %73
  %indvars.iv.next92 = add nsw i64 %indvars.iv91, 1
  %exitcond95.not = icmp eq i64 %indvars.iv.next92, %wide.trip.count106
  br i1 %exitcond95.not, label %._crit_edge64, label %.lr.ph.us.us73, !llvm.loop !78

.lr.ph.us.us79:                                   ; preds = %.lr.ph63.split.us, %._crit_edge.split.split.split.us.us.us
  %indvars.iv = phi i64 [ %indvars.iv.next, %._crit_edge.split.split.split.us.us.us ], [ %36, %.lr.ph63.split.us ]
  %93 = mul nsw i64 %indvars.iv, %37
  %94 = getelementptr inbounds i16, ptr %28, i64 %93
  %95 = mul nsw i64 %indvars.iv, %38
  %96 = getelementptr inbounds i16, ptr %29, i64 %95
  br label %97

97:                                               ; preds = %97, %.lr.ph.us.us79
  %.04752.us58.us.us = phi i32 [ 0, %.lr.ph.us.us79 ], [ %110, %97 ]
  %.04851.us59.us.us = phi ptr [ %94, %.lr.ph.us.us79 ], [ %109, %97 ]
  %.04950.us60.us.us = phi ptr [ %96, %.lr.ph.us.us79 ], [ %108, %97 ]
  %98 = getelementptr inbounds nuw i8, ptr %.04851.us59.us.us, i64 2
  %99 = load i16, ptr %98, align 2, !tbaa !73
  %100 = zext i16 %99 to i64
  %101 = getelementptr inbounds nuw [65536 x i16], ptr %34, i64 0, i64 %100
  %102 = load i16, ptr %101, align 2, !tbaa !73
  %103 = getelementptr inbounds nuw i8, ptr %.04950.us60.us.us, i64 2
  store i16 %102, ptr %103, align 2, !tbaa !73
  %104 = load i16, ptr %.04851.us59.us.us, align 2, !tbaa !73
  %105 = zext i16 %104 to i64
  %106 = getelementptr inbounds nuw [65536 x i16], ptr %14, i64 0, i64 %105
  %107 = load i16, ptr %106, align 2, !tbaa !73
  store i16 %107, ptr %.04950.us60.us.us, align 2, !tbaa !73
  %108 = getelementptr inbounds i16, ptr %.04950.us60.us.us, i64 %35
  %109 = getelementptr inbounds i16, ptr %.04851.us59.us.us, i64 %35
  %110 = add nuw nsw i32 %.04752.us58.us.us, 1
  %exitcond.not = icmp eq i32 %110, %8
  br i1 %exitcond.not, label %._crit_edge.split.split.split.us.us.us, label %97, !llvm.loop !77

._crit_edge.split.split.split.us.us.us:           ; preds = %97
  %indvars.iv.next = add nsw i64 %indvars.iv, 1
  %exitcond89.not = icmp eq i64 %indvars.iv.next, %wide.trip.count106
  br i1 %exitcond89.not, label %._crit_edge64, label %.lr.ph.us.us79, !llvm.loop !78

.lr.ph.us:                                        ; preds = %.lr.ph63.split.us, %._crit_edge.split.split.split.us68
  %indvars.iv103 = phi i64 [ %indvars.iv.next104, %._crit_edge.split.split.split.us68 ], [ %36, %.lr.ph63.split.us ]
  %111 = mul nsw i64 %indvars.iv103, %37
  %112 = getelementptr inbounds i16, ptr %28, i64 %111
  %113 = mul nsw i64 %indvars.iv103, %38
  %114 = getelementptr inbounds i16, ptr %29, i64 %113
  br label %115

115:                                              ; preds = %.lr.ph.us, %115
  %.04752.us65 = phi i32 [ 0, %.lr.ph.us ], [ %122, %115 ]
  %.04851.us66 = phi ptr [ %112, %.lr.ph.us ], [ %121, %115 ]
  %.04950.us67 = phi ptr [ %114, %.lr.ph.us ], [ %120, %115 ]
  %116 = load i16, ptr %.04851.us66, align 2, !tbaa !73
  %117 = zext i16 %116 to i64
  %118 = getelementptr inbounds nuw [65536 x i16], ptr %14, i64 0, i64 %117
  %119 = load i16, ptr %118, align 2, !tbaa !73
  store i16 %119, ptr %.04950.us67, align 2, !tbaa !73
  %120 = getelementptr inbounds i16, ptr %.04950.us67, i64 %35
  %121 = getelementptr inbounds i16, ptr %.04851.us66, i64 %35
  %122 = add nuw nsw i32 %.04752.us65, 1
  %exitcond102.not = icmp eq i32 %122, %8
  br i1 %exitcond102.not, label %._crit_edge.split.split.split.us68, label %115, !llvm.loop !77

._crit_edge.split.split.split.us68:               ; preds = %115
  %indvars.iv.next104 = add nsw i64 %indvars.iv103, 1
  %exitcond107.not = icmp eq i64 %indvars.iv.next104, %wide.trip.count106
  br i1 %exitcond107.not, label %._crit_edge64, label %.lr.ph.us, !llvm.loop !78

._crit_edge64:                                    ; preds = %._crit_edge.split.split.split.us.us.us, %._crit_edge.split.split.us.us.us, %._crit_edge.split.us.us.us, %._crit_edge.split.split.split.us68, %.lr.ph63, %4
  ret i32 0
}